	.cpu cortex-m0plus
	.fpu softvfp
	.eabi_attribute 20, 1
	.eabi_attribute 21, 1
	.eabi_attribute 23, 3
	.eabi_attribute 24, 1
	.eabi_attribute 25, 1
	.eabi_attribute 26, 1
	.eabi_attribute 30, 6
	.eabi_attribute 34, 0
	.eabi_attribute 18, 4
	.code	16
	.file	"main.c"
	.text
.Ltext0:
	.cfi_sections	.debug_frame
	.section	.text.main,"ax",%progbits
	.align	2
	.global	main
	.code	16
	.thumb_func
	.type	main, %function
main:
.LFB68:
	.file 1 "../source/main.c"
	.loc 1 24 0
	.cfi_startproc
	push	{r7, lr}
	.cfi_def_cfa_offset 8
	.cfi_offset 7, -8
	.cfi_offset 14, -4
	add	r7, sp, #0
	.cfi_def_cfa_register 7
.LBB8:
.LBB9:
	.file 2 "../hal/proc/ARM_cortex-m0plus/core_cmFunc.h"
	.loc 2 330 0
@ 330 "../hal/proc/ARM_cortex-m0plus/core_cmFunc.h" 1
	cpsid i
@ 0 "" 2
	.code	16
.LBE9:
.LBE8:
	.loc 1 27 0
	bl	portInit
	.loc 1 36 0
	bl	__initOS
.LBB10:
.LBB11:
	.loc 2 319 0
@ 319 "../hal/proc/ARM_cortex-m0plus/core_cmFunc.h" 1
	cpsie i
@ 0 "" 2
	.code	16
.LBE11:
.LBE10:
.LBB12:
.LBB13:
	.file 3 "../include/R_RTOS_services.h"
	.loc 3 89 0
@ 89 "../include/R_RTOS_services.h" 1
	svc #0 

@ 0 "" 2
	.code	16
.L2:
	b	.L2
.LBE13:
.LBE12:
	.cfi_endproc
.LFE68:
	.size	main, .-main
	.section	.text.portInit,"ax",%progbits
	.align	2
	.global	portInit
	.code	16
	.thumb_func
	.type	portInit, %function
portInit:
.LFB69:
	.loc 1 51 0
	.cfi_startproc
	push	{r7, lr}
	.cfi_def_cfa_offset 8
	.cfi_offset 7, -8
	.cfi_offset 14, -4
	add	r7, sp, #0
	.cfi_def_cfa_register 7
	.loc 1 53 0
	ldr	r3, .L12
	mov	r0, r3
	mov	r1, #1
	mov	r2, #1
	bl	initPin
	.loc 1 54 0
	mov	r3, #144
	lsl	r3, r3, #1
	mov	r0, r3
	mov	r1, #1
	mov	r2, #0
	bl	initPin
	.loc 1 55 0
	mov	r3, #146
	lsl	r3, r3, #1
	mov	r0, r3
	mov	r1, #1
	mov	r2, #0
	bl	initPin
	.loc 1 56 0
	mov	r3, #148
	lsl	r3, r3, #1
	mov	r0, r3
	mov	r1, #1
	mov	r2, #0
	bl	initPin
	.loc 1 57 0
	mov	r3, #150
	lsl	r3, r3, #1
	mov	r0, r3
	mov	r1, #1
	mov	r2, #0
	bl	initPin
	.loc 1 62 0
	ldr	r3, .L12+4
	ldr	r2, [r3, #20]
	mov	r3, #128
	lsl	r3, r3, #1
	and	r3, r2
	beq	.L5
	.loc 1 62 0 is_stmt 0 discriminator 1
	ldr	r3, .L12+4
	ldr	r2, .L12+4
	ldr	r2, [r2, #4]
	mov	r1, #128
	lsl	r1, r1, #1
	orr	r2, r1
	str	r2, [r3, #4]
.L5:
	.loc 1 63 0 is_stmt 1
	ldr	r3, .L12+4
	ldr	r2, [r3, #20]
	mov	r3, #128
	lsl	r3, r3, #2
	and	r3, r2
	beq	.L7
	.loc 1 63 0 is_stmt 0 discriminator 1
	ldr	r3, .L12+4
	ldr	r2, .L12+4
	ldr	r2, [r2, #4]
	mov	r1, #128
	lsl	r1, r1, #2
	orr	r2, r1
	str	r2, [r3, #4]
.L7:
	.loc 1 64 0 is_stmt 1
	ldr	r3, .L12+4
	ldr	r2, [r3, #20]
	mov	r3, #128
	lsl	r3, r3, #3
	and	r3, r2
	beq	.L9
	.loc 1 64 0 is_stmt 0 discriminator 1
	ldr	r3, .L12+4
	ldr	r2, .L12+4
	ldr	r2, [r2, #4]
	mov	r1, #128
	lsl	r1, r1, #3
	orr	r2, r1
	str	r2, [r3, #4]
.L9:
	.loc 1 65 0 is_stmt 1
	ldr	r3, .L12+4
	ldr	r2, [r3, #20]
	mov	r3, #128
	lsl	r3, r3, #4
	and	r3, r2
	beq	.L3
	.loc 1 65 0 is_stmt 0 discriminator 1
	ldr	r3, .L12+4
	ldr	r2, .L12+4
	ldr	r2, [r2, #4]
	mov	r1, #128
	lsl	r1, r1, #4
	orr	r2, r1
	str	r2, [r3, #4]
.L3:
	.loc 1 66 0 is_stmt 1
	mov	sp, r7
	@ sp needed
	pop	{r7, pc}
.L13:
	.align	2
.L12:
	.word	4116
	.word	1074786304
	.cfi_endproc
.LFE69:
	.size	portInit, .-portInit
	.text
.Letext0:
	.file 4 "c:\\freescale\\kds_3.0.0\\toolchain\\arm-none-eabi\\include\\machine\\_default_types.h"
	.file 5 "c:\\freescale\\kds_3.0.0\\toolchain\\arm-none-eabi\\include\\stdint.h"
	.file 6 "../hal/mcu/NXP_KL05/BSP/include/MKL05Z4.h"
	.file 7 "../hal/mcu/NXP_KL05/include/PortFunc.h"
	.file 8 "../include/R_RTOS_inc.h"